; Function Attrs: nounwind uwtable
define ptr @l_Std_Range_forIn_x27_loop___at_Lean_Elab_Tactic_BVDecide_Frontend_Normalize_isSupportedMatch_trySimpleEnum___spec__1___boxed(ptr noundef %0, ptr noundef %1, ptr noundef %2, ptr noundef %3, ptr noundef %4, ptr noundef %5, ptr noundef %6, ptr noundef readnone captures(none) %7, ptr noundef readnone captures(none) %8, ptr noundef %9, ptr noundef %10, ptr noundef %11, ptr noundef %12, ptr noundef %13) local_unnamed_addr #1 {
  %15 = tail call ptr @l_Std_Range_forIn_x27_loop___at_Lean_Elab_Tactic_BVDecide_Frontend_Normalize_isSupportedMatch_trySimpleEnum___spec__1(ptr noundef %0, ptr noundef %1, ptr poison, ptr noundef %3, ptr noundef %4, ptr noundef %5, ptr noundef %6, ptr poison, ptr poison, ptr noundef %9, ptr noundef %10, ptr noundef %11, ptr noundef %12, ptr noundef %13)
  %16 = ptrtoint ptr %4 to i64
  %17 = and i64 %16, 1
  %.not = icmp eq i64 %17, 0
  br i1 %.not, label %18, label %lean_dec.exit21

18:                                               ; preds = %14
  %19 = load i32, ptr %4, align 4, !tbaa !8
  %20 = icmp sgt i32 %19, 1
  br i1 %20, label %21, label %23, !prof !11

21:                                               ; preds = %18
  %22 = add nsw i32 %19, -1
  store i32 %22, ptr %4, align 4, !tbaa !8
  br label %lean_dec.exit21

23:                                               ; preds = %18
  %.not.i = icmp eq i32 %19, 0
  br i1 %.not.i, label %lean_dec.exit21, label %24

24:                                               ; preds = %23
  tail call void @lean_dec_ref_cold(ptr noundef nonnull %4) #4
  br label %lean_dec.exit21

lean_dec.exit21:                                  ; preds = %24, %23, %21, %14
  %25 = ptrtoint ptr %2 to i64
  %26 = and i64 %25, 1
  %.not28 = icmp eq i64 %26, 0
  br i1 %.not28, label %27, label %lean_dec.exit20

27:                                               ; preds = %lean_dec.exit21
  %28 = load i32, ptr %2, align 4, !tbaa !8
  %29 = icmp sgt i32 %28, 1
  br i1 %29, label %30, label %32, !prof !11

30:                                               ; preds = %27
  %31 = add nsw i32 %28, -1
  store i32 %31, ptr %2, align 4, !tbaa !8
  br label %lean_dec.exit20

32:                                               ; preds = %27
  %.not.i22 = icmp eq i32 %28, 0
  br i1 %.not.i22, label %lean_dec.exit20, label %33

33:                                               ; preds = %32
  tail call void @lean_dec_ref_cold(ptr noundef nonnull %2) #4
  br label %lean_dec.exit20

lean_dec.exit20:                                  ; preds = %33, %32, %30, %lean_dec.exit21
  %34 = ptrtoint ptr %1 to i64
  %35 = and i64 %34, 1
  %.not29 = icmp eq i64 %35, 0
  br i1 %.not29, label %36, label %lean_dec.exit19

36:                                               ; preds = %lean_dec.exit20
  %37 = load i32, ptr %1, align 4, !tbaa !8
  %38 = icmp sgt i32 %37, 1
  br i1 %38, label %39, label %41, !prof !11

39:                                               ; preds = %36
  %40 = add nsw i32 %37, -1
  store i32 %40, ptr %1, align 4, !tbaa !8
  br label %lean_dec.exit19

41:                                               ; preds = %36
  %.not.i24 = icmp eq i32 %37, 0
  br i1 %.not.i24, label %lean_dec.exit19, label %42

42:                                               ; preds = %41
  tail call void @lean_dec_ref_cold(ptr noundef nonnull %1) #4
  br label %lean_dec.exit19

lean_dec.exit19:                                  ; preds = %42, %41, %39, %lean_dec.exit20
  %43 = ptrtoint ptr %0 to i64
  %44 = and i64 %43, 1
  %.not30 = icmp eq i64 %44, 0
  br i1 %.not30, label %45, label %lean_dec.exit

45:                                               ; preds = %lean_dec.exit19
  %46 = load i32, ptr %0, align 4, !tbaa !8
  %47 = icmp sgt i32 %46, 1
  br i1 %47, label %48, label %50, !prof !11

48:                                               ; preds = %45
  %49 = add nsw i32 %46, -1
  store i32 %49, ptr %0, align 4, !tbaa !8
  br label %lean_dec.exit

50:                                               ; preds = %45
  %.not.i26 = icmp eq i32 %46, 0
  br i1 %.not.i26, label %lean_dec.exit, label %51

51:                                               ; preds = %50
  tail call void @lean_dec_ref_cold(ptr noundef nonnull %0) #4
  br label %lean_dec.exit

lean_dec.exit:                                    ; preds = %51, %50, %48, %lean_dec.exit19
  ret ptr %15
}